target datalayout = "e-m:e-p270:32:32-p271:32:32-p272:64:64-i64:64-i128:128-f80:128-n8:16:32:64-S128"
target triple = "x86_64-unknown-linux-gnu"

%"class.datalog::check_table_plugin" = type <{ %"class.datalog::table_plugin", ptr, ptr, i32, [4 x i8] }>
%"class.datalog::table_plugin" = type { %"class.datalog::tr_infrastructure<datalog::table_traits>::plugin_object" }
%"class.datalog::tr_infrastructure<datalog::table_traits>::plugin_object" = type { ptr, i32, %class.symbol, ptr }
%class.symbol = type { ptr }

; Function Attrs: mustprogress uwtable
define hidden noundef zeroext i1 @_ZN7datalog18check_table_plugin20can_handle_signatureERKNS_15table_signatureE(ptr noundef nonnull align 8 dereferenceable(52) %this, ptr noundef nonnull align 8 dereferenceable(12) %s) unnamed_addr #4 align 2 {
entry:
  %this.addr = alloca ptr, align 8
  %s.addr = alloca ptr, align 8
  store ptr %this, ptr %this.addr, align 8
  store ptr %s, ptr %s.addr, align 8
  %this1 = load ptr, ptr %this.addr, align 8
  %m_tocheck = getelementptr inbounds %"class.datalog::check_table_plugin", ptr %this1, i32 0, i32 2
  %0 = load ptr, ptr %m_tocheck, align 8
  %1 = load ptr, ptr %s.addr, align 8
  %vtable = load ptr, ptr %0, align 8
  %vfn = getelementptr inbounds ptr, ptr %vtable, i64 3
  %2 = load ptr, ptr %vfn, align 8
  %call = call noundef zeroext i1 %2(ptr noundef nonnull align 8 dereferenceable(32) %0, ptr noundef nonnull align 8 dereferenceable(12) %1)
  br i1 %call, label %land.rhs, label %land.end

land.rhs:                                         ; preds = %entry
  %m_checker = getelementptr inbounds %"class.datalog::check_table_plugin", ptr %this1, i32 0, i32 1
  %3 = load ptr, ptr %m_checker, align 8
  %4 = load ptr, ptr %s.addr, align 8
  %vtable2 = load ptr, ptr %3, align 8
  %vfn3 = getelementptr inbounds ptr, ptr %vtable2, i64 3
  %5 = load ptr, ptr %vfn3, align 8
  %call4 = call noundef zeroext i1 %5(ptr noundef nonnull align 8 dereferenceable(32) %3, ptr noundef nonnull align 8 dereferenceable(12) %4)
  br label %land.end

land.end:                                         ; preds = %land.rhs, %entry
  %6 = phi i1 [ false, %entry ], [ %call4, %land.rhs ]
  ret i1 %6
}