; Function Attrs: mustprogress uwtable
define hidden noundef zeroext i1 @_ZN7datalog18check_table_plugin20can_handle_signatureERKNS_15table_signatureE(ptr nocapture noundef nonnull readonly align 8 dereferenceable(52) %this, ptr noundef nonnull align 8 dereferenceable(12) %s) unnamed_addr #3 align 2 {
entry:
  %m_tocheck = getelementptr inbounds i8, ptr %this, i64 40
  %0 = load ptr, ptr %m_tocheck, align 8
  %vtable = load ptr, ptr %0, align 8
  %vfn = getelementptr inbounds i8, ptr %vtable, i64 24
  %1 = load ptr, ptr %vfn, align 8
  %call = tail call noundef zeroext i1 %1(ptr noundef nonnull align 8 dereferenceable(32) %0, ptr noundef nonnull align 8 dereferenceable(12) %s)
  br i1 %call, label %land.rhs, label %land.end

land.rhs:                                         ; preds = %entry
  %m_checker = getelementptr inbounds i8, ptr %this, i64 32
  %2 = load ptr, ptr %m_checker, align 8
  %vtable2 = load ptr, ptr %2, align 8
  %vfn3 = getelementptr inbounds i8, ptr %vtable2, i64 24
  %3 = load ptr, ptr %vfn3, align 8
  %call4 = tail call noundef zeroext i1 %3(ptr noundef nonnull align 8 dereferenceable(32) %2, ptr noundef nonnull align 8 dereferenceable(12) %s)
  br label %land.end

land.end:                                         ; preds = %land.rhs, %entry
  %4 = phi i1 [ false, %entry ], [ %call4, %land.rhs ]
  ret i1 %4
}